; Function Attrs: nounwind sspstrong uwtable
define internal i64 @ossl_bn_to_i(i64 noundef %0) #0 {
  %2 = tail call ptr @rb_check_typeddata(i64 noundef %0, ptr noundef nonnull @ossl_bn_type) #11
  %.not = icmp eq ptr %2, null
  br i1 %.not, label %3, label %5

3:                                                ; preds = %1
  %4 = load i64, ptr @rb_eRuntimeError, align 8, !tbaa !6
  tail call void (i64, ptr, ...) @ossl_raise(i64 noundef %4, ptr noundef nonnull @.str) #12
  unreachable

5:                                                ; preds = %1
  %6 = tail call ptr @BN_bn2hex(ptr noundef nonnull %2) #11
  %.not6 = icmp eq ptr %6, null
  br i1 %.not6, label %7, label %9

7:                                                ; preds = %5
  %8 = load i64, ptr @eBNError, align 8, !tbaa !6
  tail call void (i64, ptr, ...) @ossl_raise(i64 noundef %8, ptr noundef null) #12
  unreachable

9:                                                ; preds = %5
  %10 = tail call i64 @rb_cstr_to_inum(ptr noundef nonnull %6, i32 noundef 16, i32 noundef 20) #11
  tail call void @CRYPTO_free(ptr noundef nonnull %6, ptr noundef nonnull @.str.77, i32 noundef 386) #11
  ret i64 %10
}